; Function Attrs: mustprogress nounwind uwtable
define internal void @_ZN9grpc_core12_GLOBAL__N_120XdsClusterResolverLb28LogicalDNSDiscoveryMechanismD2Ev(ptr nocapture noundef nonnull align 8 dereferenceable(40) %this) unnamed_addr #7 align 2 personality ptr @__gxx_personality_v0 {
entry:
  store ptr getelementptr inbounds ({ [8 x ptr] }, ptr @_ZTVN9grpc_core12_GLOBAL__N_120XdsClusterResolverLb28LogicalDNSDiscoveryMechanismE, i64 0, i32 0, i64 2), ptr %this, align 8
  %resolver_ = getelementptr inbounds i8, ptr %this, i64 32
  %0 = load ptr, ptr %resolver_, align 8
  %cmp.not.i = icmp eq ptr %0, null
  br i1 %cmp.not.i, label %_ZNSt10unique_ptrIN9grpc_core8ResolverENS0_16OrphanableDeleteEED2Ev.exit, label %if.then.i

if.then.i:                                        ; preds = %entry
  %vtable.i.i = load ptr, ptr %0, align 8
  %1 = load ptr, ptr %vtable.i.i, align 8
  invoke void %1(ptr noundef nonnull align 8 dereferenceable(16) %0)
          to label %_ZNSt10unique_ptrIN9grpc_core8ResolverENS0_16OrphanableDeleteEED2Ev.exit unwind label %terminate.lpad.i

terminate.lpad.i:                                 ; preds = %if.then.i
  %2 = landingpad { ptr, i32 }
          catch ptr null
  %3 = extractvalue { ptr, i32 } %2, 0
  tail call void @__clang_call_terminate(ptr %3) #28
  unreachable

_ZNSt10unique_ptrIN9grpc_core8ResolverENS0_16OrphanableDeleteEED2Ev.exit: ; preds = %entry, %if.then.i
  store ptr null, ptr %resolver_, align 8
  store ptr getelementptr inbounds ({ [8 x ptr] }, ptr @_ZTVN9grpc_core12_GLOBAL__N_120XdsClusterResolverLb18DiscoveryMechanismE, i64 0, i32 0, i64 2), ptr %this, align 8
  %parent_.i = getelementptr inbounds i8, ptr %this, i64 16
  %parent_.val.i = load ptr, ptr %parent_.i, align 8
  %cmp.not.i.i = icmp eq ptr %parent_.val.i, null
  br i1 %cmp.not.i.i, label %_ZN9grpc_core12_GLOBAL__N_120XdsClusterResolverLb18DiscoveryMechanismD2Ev.exit, label %if.then.i.i

if.then.i.i:                                      ; preds = %_ZNSt10unique_ptrIN9grpc_core8ResolverENS0_16OrphanableDeleteEED2Ev.exit
  %refs_.i.i.i = getelementptr inbounds i8, ptr %parent_.val.i, i64 8
  %4 = atomicrmw sub ptr %refs_.i.i.i, i64 1 acq_rel, align 8
  %cmp.i.i.i.i = icmp eq i64 %4, 1
  br i1 %cmp.i.i.i.i, label %if.then.i.i.i, label %_ZN9grpc_core12_GLOBAL__N_120XdsClusterResolverLb18DiscoveryMechanismD2Ev.exit

if.then.i.i.i:                                    ; preds = %if.then.i.i
  %vtable.i.i.i.i = load ptr, ptr %parent_.val.i, align 8
  %vfn.i.i.i.i = getelementptr inbounds i8, ptr %vtable.i.i.i.i, i64 16
  %5 = load ptr, ptr %vfn.i.i.i.i, align 8
  tail call void %5(ptr noundef nonnull align 8 dereferenceable(56) %parent_.val.i) #27
  br label %_ZN9grpc_core12_GLOBAL__N_120XdsClusterResolverLb18DiscoveryMechanismD2Ev.exit

_ZN9grpc_core12_GLOBAL__N_120XdsClusterResolverLb18DiscoveryMechanismD2Ev.exit: ; preds = %_ZNSt10unique_ptrIN9grpc_core8ResolverENS0_16OrphanableDeleteEED2Ev.exit, %if.then.i.i, %if.then.i.i.i
  ret void
}